target datalayout = "e-m:e-p270:32:32-p271:32:32-p272:64:64-i64:64-i128:128-f80:128-n8:16:32:64-S128"
target triple = "x86_64-unknown-linux-gnu"

%"struct.facebook::velox::ByteRange" = type { ptr, i32, i32 }
%"class.facebook::velox::ByteInputStream" = type { ptr, %"class.std::vector", ptr }
%"class.std::vector" = type { %"struct.std::_Vector_base" }
%"struct.std::_Vector_base" = type { %"struct.std::_Vector_base<facebook::velox::ByteRange, std::allocator<facebook::velox::ByteRange>>::_Vector_impl" }
%"struct.std::_Vector_base<facebook::velox::ByteRange, std::allocator<facebook::velox::ByteRange>>::_Vector_impl" = type { %"struct.std::_Vector_base<facebook::velox::ByteRange, std::allocator<facebook::velox::ByteRange>>::_Vector_impl_data" }
%"struct.std::_Vector_base<facebook::velox::ByteRange, std::allocator<facebook::velox::ByteRange>>::_Vector_impl_data" = type { ptr, ptr, ptr }

; Function Attrs: mustprogress uwtable
define noundef zeroext i8 @_ZN8facebook5velox15ByteInputStream8readByteEv(ptr noundef nonnull align 8 dereferenceable(40) %this) #0 align 2 {
entry:
  %retval = alloca i8, align 1
  %this.addr = alloca ptr, align 8
  store ptr %this, ptr %this.addr, align 8
  %this1 = load ptr, ptr %this.addr, align 8
  %current_ = getelementptr inbounds %"class.facebook::velox::ByteInputStream", ptr %this1, i32 0, i32 2
  %0 = load ptr, ptr %current_, align 8
  %position = getelementptr inbounds %"struct.facebook::velox::ByteRange", ptr %0, i32 0, i32 2
  %1 = load i32, ptr %position, align 4
  %current_2 = getelementptr inbounds %"class.facebook::velox::ByteInputStream", ptr %this1, i32 0, i32 2
  %2 = load ptr, ptr %current_2, align 8
  %size = getelementptr inbounds %"struct.facebook::velox::ByteRange", ptr %2, i32 0, i32 1
  %3 = load i32, ptr %size, align 8
  %cmp = icmp slt i32 %1, %3
  br i1 %cmp, label %if.then, label %if.end

if.then:                                          ; preds = %entry
  %current_3 = getelementptr inbounds %"class.facebook::velox::ByteInputStream", ptr %this1, i32 0, i32 2
  %4 = load ptr, ptr %current_3, align 8
  %buffer = getelementptr inbounds %"struct.facebook::velox::ByteRange", ptr %4, i32 0, i32 0
  %5 = load ptr, ptr %buffer, align 8
  %current_4 = getelementptr inbounds %"class.facebook::velox::ByteInputStream", ptr %this1, i32 0, i32 2
  %6 = load ptr, ptr %current_4, align 8
  %position5 = getelementptr inbounds %"struct.facebook::velox::ByteRange", ptr %6, i32 0, i32 2
  %7 = load i32, ptr %position5, align 4
  %inc = add nsw i32 %7, 1
  store i32 %inc, ptr %position5, align 4
  %idxprom = sext i32 %7 to i64
  %arrayidx = getelementptr inbounds i8, ptr %5, i64 %idxprom
  %8 = load i8, ptr %arrayidx, align 1
  store i8 %8, ptr %retval, align 1
  br label %return

if.end:                                           ; preds = %entry
  %vtable = load ptr, ptr %this1, align 8
  %vfn = getelementptr inbounds ptr, ptr %vtable, i64 3
  %9 = load ptr, ptr %vfn, align 8
  call void %9(ptr noundef nonnull align 8 dereferenceable(40) %this1, i1 noundef zeroext true)
  %call = call noundef zeroext i8 @_ZN8facebook5velox15ByteInputStream8readByteEv(ptr noundef nonnull align 8 dereferenceable(40) %this1)
  store i8 %call, ptr %retval, align 1
  br label %return

return:                                           ; preds = %if.end, %if.then
  %10 = load i8, ptr %retval, align 1
  ret i8 %10
}