; Function Attrs: mustprogress uwtable
define noundef zeroext i8 @_ZN8facebook5velox15ByteInputStream8readByteEv(ptr noundef nonnull align 8 dereferenceable(40) %this) local_unnamed_addr #0 align 2 {
entry:
  %current_ = getelementptr inbounds i8, ptr %this, i64 32
  %0 = load ptr, ptr %current_, align 8
  %position3 = getelementptr inbounds i8, ptr %0, i64 12
  %1 = load i32, ptr %position3, align 4
  %size4 = getelementptr inbounds i8, ptr %0, i64 8
  %2 = load i32, ptr %size4, align 8
  %cmp5 = icmp slt i32 %1, %2
  br i1 %cmp5, label %if.then, label %if.end

if.then:                                          ; preds = %if.end, %entry
  %.lcssa2 = phi ptr [ %0, %entry ], [ %6, %if.end ]
  %.lcssa = phi i32 [ %1, %entry ], [ %7, %if.end ]
  %position.le = getelementptr inbounds i8, ptr %.lcssa2, i64 12
  %3 = load ptr, ptr %.lcssa2, align 8
  %inc = add nsw i32 %.lcssa, 1
  store i32 %inc, ptr %position.le, align 4
  %idxprom = sext i32 %.lcssa to i64
  %arrayidx = getelementptr inbounds i8, ptr %3, i64 %idxprom
  %4 = load i8, ptr %arrayidx, align 1
  ret i8 %4

if.end:                                           ; preds = %entry, %if.end
  %vtable = load ptr, ptr %this, align 8
  %vfn = getelementptr inbounds i8, ptr %vtable, i64 24
  %5 = load ptr, ptr %vfn, align 8
  tail call void %5(ptr noundef nonnull align 8 dereferenceable(40) %this, i1 noundef zeroext true)
  %6 = load ptr, ptr %current_, align 8
  %position = getelementptr inbounds i8, ptr %6, i64 12
  %7 = load i32, ptr %position, align 4
  %size = getelementptr inbounds i8, ptr %6, i64 8
  %8 = load i32, ptr %size, align 8
  %cmp = icmp slt i32 %7, %8
  br i1 %cmp, label %if.then, label %if.end
}